; Function Attrs: mustprogress nofree norecurse nosync nounwind willreturn memory(argmem: read) uwtable
define dso_local i32 @ExecTargetListLength(ptr noundef readonly captures(address_is_null) %0) local_unnamed_addr #3 {
  %.not.i = icmp eq ptr %0, null
  br i1 %.not.i, label %list_length.exit, label %2

2:                                                ; preds = %1
  %3 = getelementptr inbounds nuw i8, ptr %0, i64 4
  %4 = load i32, ptr %3, align 4
  br label %list_length.exit

list_length.exit:                                 ; preds = %1, %2
  %5 = phi i32 [ %4, %2 ], [ 0, %1 ]
  ret i32 %5
}